target datalayout = "e-m:e-p270:32:32-p271:32:32-p272:64:64-i64:64-i128:128-f80:128-n8:16:32:64-S128"
target triple = "x86_64-pc-linux-gnu"

%struct.ssl_ctx_st = type { ptr, ptr, ptr, ptr, ptr, ptr, ptr, i64, ptr, ptr, i32, %struct.OSSL_TIME, ptr, ptr, ptr, %struct.anon, %struct.CRYPTO_REF_COUNT, ptr, ptr, ptr, ptr, ptr, ptr, ptr, ptr, ptr, %struct.crypto_ex_data_st, ptr, ptr, ptr, ptr, ptr, ptr, ptr, i64, i32, i32, i32, i64, ptr, ptr, i32, ptr, ptr, i32, i64, [32 x i8], ptr, ptr, ptr, i32, ptr, ptr, ptr, i64, i64, i64, i64, ptr, ptr, ptr, ptr, ptr, %struct.anon.0, ptr, ptr, ptr, ptr, %struct.srp_ctx_st, %struct.dane_ctx_st, ptr, ptr, ptr, ptr, i32, i32, ptr, ptr, i64, i64, ptr, ptr, ptr, i64, ptr, ptr, i32, ptr, ptr, ptr, [14 x i32], [24 x ptr], [14 x ptr], [14 x i64], i64, ptr, ptr, ptr, i64, i64, ptr, i64, i64, i32, i32, i32, i32, ptr, i64, ptr, i64, i64, ptr, ptr }
%struct.OSSL_TIME = type { i64 }
%struct.anon = type { i32, i32, i32, i32, i32, i32, i32, i32, i32, i32, i32 }
%struct.CRYPTO_REF_COUNT = type { i32 }
%struct.crypto_ex_data_st = type { ptr, ptr }
%struct.anon.0 = type { ptr, ptr, [16 x i8], ptr, ptr, ptr, ptr, ptr, i32, i8, i64, ptr, i64, ptr, i64, ptr, i64, ptr, ptr, i64, ptr, ptr, ptr, i64, ptr, ptr, ptr, ptr, [32 x i8] }
%struct.srp_ctx_st = type { ptr, ptr, ptr, ptr, ptr, ptr, ptr, ptr, ptr, ptr, ptr, ptr, ptr, ptr, i32, i64 }
%struct.dane_ctx_st = type { ptr, ptr, i8, i64 }

; Function Attrs: nounwind uwtable
define ptr @BIO_new_buffer_ssl_connect(ptr noundef %0) #0 {
  %2 = alloca ptr, align 8
  %3 = alloca ptr, align 8
  %4 = alloca ptr, align 8
  %5 = alloca ptr, align 8
  %6 = alloca ptr, align 8
  %7 = alloca i32, align 4
  store ptr %0, ptr %3, align 8, !tbaa !3
  call void @llvm.lifetime.start.p0(i64 8, ptr %4) #5
  store ptr null, ptr %4, align 8, !tbaa !8
  call void @llvm.lifetime.start.p0(i64 8, ptr %5) #5
  store ptr null, ptr %5, align 8, !tbaa !8
  call void @llvm.lifetime.start.p0(i64 8, ptr %6) #5
  store ptr null, ptr %6, align 8, !tbaa !8
  %8 = load ptr, ptr %3, align 8, !tbaa !3
  %9 = icmp ne ptr %8, null
  br i1 %9, label %10, label %31

10:                                               ; preds = %1
  %11 = load ptr, ptr %3, align 8, !tbaa !3
  %12 = getelementptr inbounds nuw %struct.ssl_ctx_st, ptr %11, i32 0, i32 1
  %13 = load ptr, ptr %12, align 8, !tbaa !10
  %14 = call ptr @OSSL_QUIC_client_method()
  %15 = icmp eq ptr %13, %14
  br i1 %15, label %28, label %16

16:                                               ; preds = %10
  %17 = load ptr, ptr %3, align 8, !tbaa !3
  %18 = getelementptr inbounds nuw %struct.ssl_ctx_st, ptr %17, i32 0, i32 1
  %19 = load ptr, ptr %18, align 8, !tbaa !10
  %20 = call ptr @OSSL_QUIC_client_thread_method()
  %21 = icmp eq ptr %19, %20
  br i1 %21, label %28, label %22

22:                                               ; preds = %16
  %23 = load ptr, ptr %3, align 8, !tbaa !3
  %24 = getelementptr inbounds nuw %struct.ssl_ctx_st, ptr %23, i32 0, i32 1
  %25 = load ptr, ptr %24, align 8, !tbaa !10
  %26 = call ptr @OSSL_QUIC_server_method()
  %27 = icmp eq ptr %25, %26
  br i1 %27, label %28, label %31

28:                                               ; preds = %22, %16, %10
  %29 = load ptr, ptr %3, align 8, !tbaa !3
  %30 = call ptr @BIO_new_ssl_connect(ptr noundef %29)
  store ptr %30, ptr %2, align 8
  store i32 1, ptr %7, align 4
  br label %54

31:                                               ; preds = %22, %1
  %32 = call ptr @BIO_f_buffer()
  %33 = call ptr @BIO_new(ptr noundef %32)
  store ptr %33, ptr %5, align 8, !tbaa !8
  %34 = icmp eq ptr %33, null
  br i1 %34, label %35, label %36

35:                                               ; preds = %31
  store ptr null, ptr %2, align 8
  store i32 1, ptr %7, align 4
  br label %54

36:                                               ; preds = %31
  %37 = load ptr, ptr %3, align 8, !tbaa !3
  %38 = call ptr @BIO_new_ssl_connect(ptr noundef %37)
  store ptr %38, ptr %6, align 8, !tbaa !8
  %39 = icmp eq ptr %38, null
  br i1 %39, label %40, label %41

40:                                               ; preds = %36
  br label %49

41:                                               ; preds = %36
  %42 = load ptr, ptr %5, align 8, !tbaa !8
  %43 = load ptr, ptr %6, align 8, !tbaa !8
  %44 = call ptr @BIO_push(ptr noundef %42, ptr noundef %43)
  store ptr %44, ptr %4, align 8, !tbaa !8
  %45 = icmp eq ptr %44, null
  br i1 %45, label %46, label %47

46:                                               ; preds = %41
  br label %49

47:                                               ; preds = %41
  %48 = load ptr, ptr %4, align 8, !tbaa !8
  store ptr %48, ptr %2, align 8
  store i32 1, ptr %7, align 4
  br label %54

49:                                               ; preds = %46, %40
  %50 = load ptr, ptr %5, align 8, !tbaa !8
  %51 = call i32 @BIO_free(ptr noundef %50)
  %52 = load ptr, ptr %6, align 8, !tbaa !8
  %53 = call i32 @BIO_free(ptr noundef %52)
  store ptr null, ptr %2, align 8
  store i32 1, ptr %7, align 4
  br label %54

54:                                               ; preds = %49, %47, %35, %28
  call void @llvm.lifetime.end.p0(i64 8, ptr %6) #5
  call void @llvm.lifetime.end.p0(i64 8, ptr %5) #5
  call void @llvm.lifetime.end.p0(i64 8, ptr %4) #5
  %55 = load ptr, ptr %2, align 8
  ret ptr %55
}