; Function Attrs: nounwind uwtable
define ptr @BIO_new_buffer_ssl_connect(ptr noundef %0) local_unnamed_addr #1 {
  %.not = icmp eq ptr %0, null
  br i1 %.not, label %17, label %2

2:                                                ; preds = %1
  %3 = getelementptr inbounds nuw i8, ptr %0, i64 8
  %4 = load ptr, ptr %3, align 8, !tbaa !3
  %5 = tail call ptr @OSSL_QUIC_client_method() #5
  %6 = icmp eq ptr %4, %5
  br i1 %6, label %15, label %7

7:                                                ; preds = %2
  %8 = load ptr, ptr %3, align 8, !tbaa !3
  %9 = tail call ptr @OSSL_QUIC_client_thread_method() #5
  %10 = icmp eq ptr %8, %9
  br i1 %10, label %15, label %11

11:                                               ; preds = %7
  %12 = load ptr, ptr %3, align 8, !tbaa !3
  %13 = tail call ptr @OSSL_QUIC_server_method() #5
  %14 = icmp eq ptr %12, %13
  br i1 %14, label %15, label %17

15:                                               ; preds = %11, %7, %2
  %16 = tail call ptr @BIO_new_ssl_connect(ptr noundef nonnull %0)
  br label %30

17:                                               ; preds = %11, %1
  %18 = tail call ptr @BIO_f_buffer() #5
  %19 = tail call ptr @BIO_new(ptr noundef %18) #5
  %20 = icmp eq ptr %19, null
  br i1 %20, label %30, label %21

21:                                               ; preds = %17
  %22 = tail call ptr @BIO_new_ssl_connect(ptr noundef %0)
  %23 = icmp eq ptr %22, null
  br i1 %23, label %27, label %24

24:                                               ; preds = %21
  %25 = tail call ptr @BIO_push(ptr noundef nonnull %19, ptr noundef nonnull %22) #5
  %26 = icmp eq ptr %25, null
  br i1 %26, label %27, label %30

27:                                               ; preds = %24, %21
  %28 = tail call i32 @BIO_free(ptr noundef nonnull %19) #5
  %29 = tail call i32 @BIO_free(ptr noundef %22) #5
  br label %30

30:                                               ; preds = %24, %17, %27, %15
  %.0 = phi ptr [ %16, %15 ], [ null, %27 ], [ null, %17 ], [ %25, %24 ]
  ret ptr %.0
}